; Function Attrs: nounwind uwtable
define ptr @l_Lean_Server_FileWorker_collectOpenNamespaces(ptr noundef %0, ptr noundef %1) local_unnamed_addr #0 {
  %3 = load ptr, ptr @l_Lean_Server_FileWorker_waitUnknownIdentifierRanges___closed__1, align 8, !tbaa !4
  tail call void @lean_inc_heartbeat() #5
  %4 = tail call noalias ptr @mi_malloc_small(i64 noundef 24) #5
  %5 = icmp eq ptr %4, null
  br i1 %5, label %6, label %lean_alloc_ctor.exit

6:                                                ; preds = %2
  tail call void @lean_internal_panic_out_of_memory() #6
  unreachable

lean_alloc_ctor.exit:                             ; preds = %2
  %7 = getelementptr inbounds nuw i8, ptr %4, i64 4
  store i32 1, ptr %4, align 4, !tbaa !8
  store i32 131096, ptr %7, align 4
  %8 = getelementptr inbounds nuw i8, ptr %4, i64 8
  store ptr %0, ptr %8, align 8, !tbaa !4
  %9 = getelementptr inbounds nuw i8, ptr %4, i64 16
  store ptr %3, ptr %9, align 8, !tbaa !4
  %10 = tail call ptr @l_Lean_Loop_forIn_loop___at_Lean_Server_FileWorker_collectOpenNamespaces___spec__1(ptr noundef nonnull %4)
  %11 = getelementptr inbounds nuw i8, ptr %10, i64 16
  %12 = load ptr, ptr %11, align 8, !tbaa !4
  %13 = ptrtoint ptr %12 to i64
  %14 = and i64 %13, 1
  %.not = icmp eq i64 %14, 0
  br i1 %.not, label %15, label %lean_inc.exit

15:                                               ; preds = %lean_alloc_ctor.exit
  %.val.i = load i32, ptr %12, align 4, !tbaa !8
  %16 = icmp sgt i32 %.val.i, 0
  br i1 %16, label %17, label %19, !prof !11

17:                                               ; preds = %15
  %18 = add nuw i32 %.val.i, 1
  store i32 %18, ptr %12, align 4, !tbaa !8
  br label %lean_inc.exit

19:                                               ; preds = %15
  %.not.i18 = icmp eq i32 %.val.i, 0
  br i1 %.not.i18, label %lean_inc.exit, label %20

20:                                               ; preds = %19
  tail call void @lean_inc_ref_cold(ptr noundef nonnull %12) #5
  br label %lean_inc.exit

lean_inc.exit:                                    ; preds = %20, %19, %17, %lean_alloc_ctor.exit
  %21 = ptrtoint ptr %10 to i64
  %22 = and i64 %21, 1
  %.not19 = icmp eq i64 %22, 0
  br i1 %.not19, label %23, label %lean_dec.exit15

23:                                               ; preds = %lean_inc.exit
  %24 = load i32, ptr %10, align 4, !tbaa !8
  %25 = icmp sgt i32 %24, 1
  br i1 %25, label %26, label %28, !prof !11

26:                                               ; preds = %23
  %27 = add nsw i32 %24, -1
  store i32 %27, ptr %10, align 4, !tbaa !8
  br label %lean_dec.exit15

28:                                               ; preds = %23
  %.not.i = icmp eq i32 %24, 0
  br i1 %.not.i, label %lean_dec.exit15, label %29

29:                                               ; preds = %28
  tail call void @lean_dec_ref_cold(ptr noundef nonnull %10) #5
  br label %lean_dec.exit15

lean_dec.exit15:                                  ; preds = %29, %28, %26, %lean_inc.exit
  %30 = tail call ptr @l_List_mapTR_loop___at_Lean_Server_FileWorker_collectOpenNamespaces___spec__2(ptr noundef %1, ptr noundef nonnull inttoptr (i64 1 to ptr))
  %31 = tail call ptr @lean_array_mk(ptr noundef %30) #5
  %32 = tail call ptr @l_Array_append___rarg(ptr noundef %12, ptr noundef %31) #5
  %33 = ptrtoint ptr %31 to i64
  %34 = and i64 %33, 1
  %.not20 = icmp eq i64 %34, 0
  br i1 %.not20, label %35, label %lean_dec.exit

35:                                               ; preds = %lean_dec.exit15
  %36 = load i32, ptr %31, align 4, !tbaa !8
  %37 = icmp sgt i32 %36, 1
  br i1 %37, label %38, label %40, !prof !11

38:                                               ; preds = %35
  %39 = add nsw i32 %36, -1
  store i32 %39, ptr %31, align 4, !tbaa !8
  br label %lean_dec.exit

40:                                               ; preds = %35
  %.not.i16 = icmp eq i32 %36, 0
  br i1 %.not.i16, label %lean_dec.exit, label %41

41:                                               ; preds = %40
  tail call void @lean_dec_ref_cold(ptr noundef nonnull %31) #5
  br label %lean_dec.exit

lean_dec.exit:                                    ; preds = %41, %40, %38, %lean_dec.exit15
  ret ptr %32
}